; Function Attrs: nounwind uwtable
define dso_local ptr @zsetSdsFromListpackEntry(ptr noundef readonly captures(none) %0) local_unnamed_addr #0 {
  %2 = load ptr, ptr %0, align 8, !tbaa !132
  %.not = icmp eq ptr %2, null
  br i1 %.not, label %8, label %3

3:                                                ; preds = %1
  %4 = getelementptr inbounds nuw i8, ptr %0, i64 8
  %5 = load i32, ptr %4, align 8, !tbaa !134
  %6 = zext i32 %5 to i64
  %7 = tail call ptr @sdsnewlen(ptr noundef nonnull %2, i64 noundef %6) #18
  br label %12

8:                                                ; preds = %1
  %9 = getelementptr inbounds nuw i8, ptr %0, i64 16
  %10 = load i64, ptr %9, align 8, !tbaa !135
  %11 = tail call ptr @sdsfromlonglong(i64 noundef %10) #18
  br label %12

12:                                               ; preds = %8, %3
  %13 = phi ptr [ %7, %3 ], [ %11, %8 ]
  ret ptr %13
}